Certificate:
    Data:
        Version: 1 (0x0)
        Serial Number: 4660 (0x1234)
    Signature Algorithm: sha1WithRSAEncryption
        Issuer: C=CA, ST=Quebec, L=Sherbrooke, O=Universite de Sherbrooke, OU=GEGI, CN=Autorite de certification/emailAddress=autorite@gegi.usherbrooke.ca
        Validity
            Not Before: Jan 24 17:16:32 2018 GMT
            Not After : Jan 23 17:16:32 2022 GMT
        Subject: C=CA, ST=Quebec, O=Universite de Sherbrooke, OU=GEGI, CN=nopus.usherbrooke.ca
        Subject Public Key Info:
            Public Key Algorithm: rsaEncryption
                Public-Key: (2048 bit)
                Modulus:
                    00:e0:21:cc:ce:73:b1:e6:72:45:cd:05:e2:37:ea:
                    8f:43:86:98:e9:43:32:9e:fe:e5:f6:ad:65:28:25:
                    cf:1d:21:87:3d:c8:9c:eb:ba:d4:dd:5d:53:48:c8:
                    8e:15:6b:16:19:2d:92:4d:bd:40:c7:61:92:8f:e7:
                    58:1f:15:3a:aa:0a:44:91:93:36:49:21:2c:c3:d4:
                    a3:f5:3d:1c:f6:c7:c5:f7:20:c2:3c:31:1b:aa:68:
                    b6:e1:38:06:f9:3f:df:86:c9:0e:06:c2:cb:29:db:
                    fb:2b:e1:f0:39:dd:65:df:44:4d:52:14:59:ca:31:
                    c9:db:ac:ff:0e:e2:dc:3f:3e:8d:3a:ba:7d:dc:ad:
                    59:81:bd:29:0a:ce:81:09:cc:a8:3e:75:ed:04:e4:
                    97:32:fd:49:2f:25:22:05:7a:d8:a9:22:d0:6f:e9:
                    d1:ad:25:4a:d8:6a:9d:4e:08:1d:53:0d:38:ea:74:
                    74:ce:b6:d4:6c:45:ca:89:2d:e0:c9:f1:38:a5:5f:
                    97:60:89:e4:d5:62:ba:9c:3b:78:d1:7e:7d:bf:24:
                    1d:26:c1:76:f5:9d:30:c0:c7:99:9e:3b:76:c6:78:
                    8e:58:87:1d:cb:cf:b3:cf:80:bb:ff:da:08:3e:6b:
                    40:a6:70:66:80:a8:9c:01:0b:94:ae:b0:23:84:9c:
                    51:f1
                Exponent: 65537 (0x10001)
    Signature Algorithm: sha1WithRSAEncryption
         d4:89:4a:3c:49:01:dc:4a:d1:d3:5f:05:6a:58:ea:91:91:b1:
         d1:4e:83:59:85:e7:2d:a6:1e:f2:b0:36:b1:94:36:c8:06:70:
         1e:9f:f1:9f:22:41:55:e9:6f:b6:d6:90:61:8f:0b:09:51:2e:
         3a:a1:e2:d3:af:db:70:24:bd:a6:d1:70:3e:a4:84:8b:79:17:
         7b:73:86:88:bb:73:59:ff:c9:7a:7c:68:9e:93:cd:81:5e:32:
         1e:26:3a:da:2c:ee:dc:53:1f:b8:4b:b8:9e:73:43:b5:b0:ee:
         7a:98:42:53:66:c0:a1:fb:a7:23:34:20:94:2e:84:83:0d:33:
         fa:8b:43:7f:fe:32:c0:17:74:b6:c8:8a:1a:36:e1:cf:fc:c1:
         f4:64:af:b3:fb:81:b6:ee:b1:0d:eb:16:b4:09:19:cc:c5:d9:
         f6:1d:f4:76:ef:d8:58:b8:f3:20:2c:c1:19:91:20:37:78:ca:
         ce:ba:4d:80:ce:10:b7:0b:06:fd:0a:2e:7c:0b:eb:aa:be:36:
         c6:7c:c9:3d:ec:cf:98:21:02:74:b4:81:fe:41:bf:d3:fe:09:
         69:a0:70:37:5a:1b:b5:f5:15:fa:ce:6b:66:45:18:c2:4e:2d:
         dc:20:e1:95:28:78:0e:7d:fc:b8:c2:7a:86:ee:89:3d:38:d3:
         d0:86:d1:18:ee:e9:4d:cd:43:28:2f:2f:02:eb:c1:cc:e2:65:
         a8:eb:ba:66:4c:b7:c8:4b:dd:36:77:6c:b3:90:a2:eb:47:69:
         a3:5d:96:aa:69:60:fe:e7:7b:5e:5f:02:42:5c:89:db:a3:c0:
         d3:33:a9:47:2d:b7:3f:12:cb:86:34:d9:e9:4c:16:68:c7:81:
         3d:73:86:98:23:b2:a3:d5:53:35:33:69:32:75:93:bd:9a:df:
         28:e9:29:14:98:8b:e6:5d:56:a7:49:b8:ca:b3:08:ee:cd:8d:
         ff:dc:af:05:25:32:52:d4:8a:90:6c:67:07:ed:af:77:a7:59:
         8f:45:38:c2:f9:07:d0:36:c5:ac:03:96:7e:8d:20:76:31:0d:
         01:3e:53:64:9a:c5:4d:0d:ad:e0:47:34:4b:99:98:1b:ea:e5:
         5f:30:95:18:ad:c4:b2:4f:e4:c4:ce:b9:2f:74:c2:95:b2:9a:
         a5:cf:4d:8d:39:df:1d:7b:05:ec:e9:24:51:3a:76:21:8e:f4:
         c5:8e:88:fc:f3:0c:25:11:51:10:74:c5:a9:eb:7b:3d:f0:31:
         08:f7:b6:87:ce:a8:d2:85:ec:dc:2a:a8:4c:4f:03:54:c1:c6:
         97:85:11:2b:16:dd:1b:7e:69:e6:e8:a9:11:51:06:e0:25:89:
         ed:64:2e:0b:5d:b1:e9:59
-----BEGIN CERTIFICATE-----
MIIEmzCCAoMCAhI0MA0GCSqGSIb3DQEBBQUAMIG2MQswCQYDVQQGEwJDQTEPMA0G
A1UECAwGUXVlYmVjMRMwEQYDVQQHDApTaGVyYnJvb2tlMSEwHwYDVQQKDBhVbml2
ZXJzaXRlIGRlIFNoZXJicm9va2UxDTALBgNVBAsMBEdFR0kxIjAgBgNVBAMMGUF1
dG9yaXRlIGRlIGNlcnRpZmljYXRpb24xKzApBgkqhkiG9w0BCQEWHGF1dG9yaXRl
QGdlZ2kudXNoZXJicm9va2UuY2EwHhcNMTgwMTI0MTcxNjMyWhcNMjIwMTIzMTcx
NjMyWjBvMQswCQYDVQQGEwJDQTEPMA0GA1UECAwGUXVlYmVjMSEwHwYDVQQKDBhV
bml2ZXJzaXRlIGRlIFNoZXJicm9va2UxDTALBgNVBAsMBEdFR0kxHTAbBgNVBAMM
FG5vcHVzLnVzaGVyYnJvb2tlLmNhMIIBIjANBgkqhkiG9w0BAQEFAAOCAQ8AMIIB
CgKCAQEA4CHMznOx5nJFzQXiN+qPQ4aY6UMynv7l9q1lKCXPHSGHPcic67rU3V1T
SMiOFWsWGS2STb1Ax2GSj+dYHxU6qgpEkZM2SSEsw9Sj9T0c9sfF9yDCPDEbqmi2
4TgG+T/fhskOBsLLKdv7K+HwOd1l30RNUhRZyjHJ26z/DuLcPz6NOrp93K1Zgb0p
Cs6BCcyoPnXtBOSXMv1JLyUiBXrYqSLQb+nRrSVK2GqdTggdUw046nR0zrbUbEXK
iS3gyfE4pV+XYInk1WK6nDt40X59vyQdJsF29Z0wwMeZnjt2xniOWIcdy8+zz4C7
/9oIPmtApnBmgKicAQuUrrAjhJxR8QIDAQABMA0GCSqGSIb3DQEBBQUAA4ICAQDU
iUo8SQHcStHTXwVqWOqRkbHRToNZhectph7ysDaxlDbIBnAen/GfIkFV6W+21pBh
jwsJUS46oeLTr9twJL2m0XA+pISLeRd7c4aIu3NZ/8l6fGiek82BXjIeJjraLO7c
Ux+4S7iec0O1sO56mEJTZsCh+6cjNCCULoSDDTP6i0N//jLAF3S2yIoaNuHP/MH0
ZK+z+4G27rEN6xa0CRnMxdn2HfR279hYuPMgLMEZkSA3eMrOuk2AzhC3Cwb9Ci58
C+uqvjbGfMk97M+YIQJ0tIH+Qb/T/glpoHA3Whu19RX6zmtmRRjCTi3cIOGVKHgO
ffy4wnqG7ok9ONPQhtEY7ulNzUMoLy8C68HM4mWo67pmTLfIS902d2yzkKLrR2mj
XZaqaWD+53teXwJCXInbo8DTM6lHLbc/EsuGNNnpTBZox4E9c4aYI7Kj1VM1M2ky
dZO9mt8o6SkUmIvmXVanSbjKswjuzY3/3K8FJTJS1IqQbGcH7a93p1mPRTjC+QfQ
NsWsA5Z+jSB2MQ0BPlNkmsVNDa3gRzRLmZgb6uVfMJUYrcSyT+TEzrkvdMKVspql
z02NOd8dewXs6SRROnYhjvTFjoj88wwlEVEQdMWp63s98DEI97aHzqjShezcKqhM
TwNUwcaXhRErFt0bfmnm6KkRUQbgJYntZC4LXbHpWQ==
-----END CERTIFICATE-----
